
led.out:     file format elf32-avr


Disassembly of section .text:

00000000 <__vectors>:
   0:	09 c0       	rjmp	.+18     	; 0x14 <__ctors_end>
   2:	4f c0       	rjmp	.+158    	; 0xa2 <__vector_1>
   4:	15 c0       	rjmp	.+42     	; 0x30 <__bad_interrupt>
   6:	14 c0       	rjmp	.+40     	; 0x30 <__bad_interrupt>
   8:	13 c0       	rjmp	.+38     	; 0x30 <__bad_interrupt>
   a:	12 c0       	rjmp	.+36     	; 0x30 <__bad_interrupt>
   c:	11 c0       	rjmp	.+34     	; 0x30 <__bad_interrupt>
   e:	10 c0       	rjmp	.+32     	; 0x30 <__bad_interrupt>
  10:	0f c0       	rjmp	.+30     	; 0x30 <__bad_interrupt>
  12:	0e c0       	rjmp	.+28     	; 0x30 <__bad_interrupt>

00000014 <__ctors_end>:
  14:	11 24       	eor	r1, r1
  16:	1f be       	out	0x3f, r1	; 63
  18:	cf e9       	ldi	r28, 0x9F	; 159
  1a:	cd bf       	out	0x3d, r28	; 61

0000001c <__do_clear_bss>:
  1c:	10 e0       	ldi	r17, 0x00	; 0
  1e:	a0 e6       	ldi	r26, 0x60	; 96
  20:	b0 e0       	ldi	r27, 0x00	; 0
  22:	01 c0       	rjmp	.+2      	; 0x26 <.do_clear_bss_start>

00000024 <.do_clear_bss_loop>:
  24:	1d 92       	st	X+, r1

00000026 <.do_clear_bss_start>:
  26:	a2 36       	cpi	r26, 0x62	; 98
  28:	b1 07       	cpc	r27, r17
  2a:	e1 f7       	brne	.-8      	; 0x24 <.do_clear_bss_loop>
  2c:	96 d0       	rcall	.+300    	; 0x15a <main>
  2e:	cc c0       	rjmp	.+408    	; 0x1c8 <_exit>

00000030 <__bad_interrupt>:
  30:	e7 cf       	rjmp	.-50     	; 0x0 <__vectors>

00000032 <spi_init>:
  32:	8e e0       	ldi	r24, 0x0E	; 14
  34:	87 bb       	out	0x17, r24	; 23
  36:	c3 9a       	sbi	0x18, 3	; 24
  38:	c1 9a       	sbi	0x18, 1	; 24
  3a:	08 95       	ret

0000003c <pwm_init>:
  3c:	83 b7       	in	r24, 0x33	; 51
  3e:	81 60       	ori	r24, 0x01	; 1
  40:	83 bf       	out	0x33, r24	; 51
  42:	8f b5       	in	r24, 0x2f	; 47
  44:	83 60       	ori	r24, 0x03	; 3
  46:	8f bd       	out	0x2f, r24	; 47
  48:	8f b5       	in	r24, 0x2f	; 47
  4a:	80 68       	ori	r24, 0x80	; 128
  4c:	8f bd       	out	0x2f, r24	; 47
  4e:	b8 9a       	sbi	0x17, 0	; 23
  50:	08 95       	ret

00000052 <uart_send_byte>:
  52:	99 b7       	in	r25, 0x39	; 57
  54:	9b 7f       	andi	r25, 0xFB	; 251
  56:	99 bf       	out	0x39, r25	; 57
  58:	98 b7       	in	r25, 0x38	; 56
  5a:	94 60       	ori	r25, 0x04	; 4
  5c:	98 bf       	out	0x38, r25	; 56
  5e:	12 be       	out	0x32, r1	; 50
  60:	99 b7       	in	r25, 0x39	; 57
  62:	91 60       	ori	r25, 0x01	; 1
  64:	99 bf       	out	0x39, r25	; 57
  66:	c0 98       	cbi	0x18, 0	; 24
  68:	08 b6       	in	r0, 0x38	; 56
  6a:	02 fe       	sbrs	r0, 2
  6c:	fd cf       	rjmp	.-6      	; 0x68 <uart_send_byte+0x16>
  6e:	98 b7       	in	r25, 0x38	; 56
  70:	94 60       	ori	r25, 0x04	; 4
  72:	98 bf       	out	0x38, r25	; 56
  74:	98 e0       	ldi	r25, 0x08	; 8
  76:	80 ff       	sbrs	r24, 0
  78:	02 c0       	rjmp	.+4      	; 0x7e <uart_send_byte+0x2c>
  7a:	c0 9a       	sbi	0x18, 0	; 24
  7c:	01 c0       	rjmp	.+2      	; 0x80 <uart_send_byte+0x2e>
  7e:	c0 98       	cbi	0x18, 0	; 24
  80:	86 95       	lsr	r24
  82:	08 b6       	in	r0, 0x38	; 56
  84:	02 fe       	sbrs	r0, 2
  86:	fd cf       	rjmp	.-6      	; 0x82 <uart_send_byte+0x30>
  88:	28 b7       	in	r18, 0x38	; 56
  8a:	24 60       	ori	r18, 0x04	; 4
  8c:	28 bf       	out	0x38, r18	; 56
  8e:	91 50       	subi	r25, 0x01	; 1
  90:	91 f7       	brne	.-28     	; 0x76 <uart_send_byte+0x24>
  92:	c0 9a       	sbi	0x18, 0	; 24
  94:	08 b6       	in	r0, 0x38	; 56
  96:	02 fe       	sbrs	r0, 2
  98:	fd cf       	rjmp	.-6      	; 0x94 <uart_send_byte+0x42>
  9a:	88 b7       	in	r24, 0x38	; 56
  9c:	84 60       	ori	r24, 0x04	; 4
  9e:	88 bf       	out	0x38, r24	; 56
  a0:	08 95       	ret

000000a2 <__vector_1>:
  a2:	1f 92       	push	r1
  a4:	0f 92       	push	r0
  a6:	0f b6       	in	r0, 0x3f	; 63
  a8:	0f 92       	push	r0
  aa:	11 24       	eor	r1, r1
  ac:	2f 93       	push	r18
  ae:	8f 93       	push	r24
  b0:	9f 93       	push	r25
  b2:	10 92 60 00 	sts	0x0060, r1
  b6:	89 b7       	in	r24, 0x39	; 57
  b8:	8b 7f       	andi	r24, 0xFB	; 251
  ba:	89 bf       	out	0x39, r24	; 57
  bc:	88 b7       	in	r24, 0x38	; 56
  be:	84 60       	ori	r24, 0x04	; 4
  c0:	88 bf       	out	0x38, r24	; 56
  c2:	12 be       	out	0x32, r1	; 50
  c4:	89 b7       	in	r24, 0x39	; 57
  c6:	84 60       	ori	r24, 0x04	; 4
  c8:	89 bf       	out	0x39, r24	; 57
  ca:	88 e0       	ldi	r24, 0x08	; 8
  cc:	90 e0       	ldi	r25, 0x00	; 0
  ce:	08 b6       	in	r0, 0x38	; 56
  d0:	02 fe       	sbrs	r0, 2
  d2:	fd cf       	rjmp	.-6      	; 0xce <__vector_1+0x2c>
  d4:	28 b7       	in	r18, 0x38	; 56
  d6:	24 60       	ori	r18, 0x04	; 4
  d8:	28 bf       	out	0x38, r18	; 56
  da:	20 91 60 00 	lds	r18, 0x0060
  de:	22 0f       	add	r18, r18
  e0:	20 93 60 00 	sts	0x0060, r18
  e4:	b1 9b       	sbis	0x16, 1	; 22
  e6:	03 c0       	rjmp	.+6      	; 0xee <__vector_1+0x4c>
  e8:	21 60       	ori	r18, 0x01	; 1
  ea:	20 93 60 00 	sts	0x0060, r18
  ee:	01 97       	sbiw	r24, 0x01	; 1
  f0:	00 97       	sbiw	r24, 0x00	; 0
  f2:	69 f7       	brne	.-38     	; 0xce <__vector_1+0x2c>
  f4:	81 e0       	ldi	r24, 0x01	; 1
  f6:	80 93 61 00 	sts	0x0061, r24
  fa:	08 b6       	in	r0, 0x38	; 56
  fc:	02 fe       	sbrs	r0, 2
  fe:	fd cf       	rjmp	.-6      	; 0xfa <__vector_1+0x58>
 100:	88 b7       	in	r24, 0x38	; 56
 102:	84 60       	ori	r24, 0x04	; 4
 104:	88 bf       	out	0x38, r24	; 56
 106:	8a b7       	in	r24, 0x3a	; 58
 108:	80 64       	ori	r24, 0x40	; 64
 10a:	8a bf       	out	0x3a, r24	; 58
 10c:	9f 91       	pop	r25
 10e:	8f 91       	pop	r24
 110:	2f 91       	pop	r18
 112:	0f 90       	pop	r0
 114:	0f be       	out	0x3f, r0	; 63
 116:	0f 90       	pop	r0
 118:	1f 90       	pop	r1
 11a:	18 95       	reti

0000011c <uart_rx_int_init>:
 11c:	b9 98       	cbi	0x17, 1	; 23
 11e:	c1 9a       	sbi	0x18, 1	; 24
 120:	82 e0       	ldi	r24, 0x02	; 2
 122:	85 bf       	out	0x35, r24	; 53
 124:	8b b7       	in	r24, 0x3b	; 59
 126:	80 64       	ori	r24, 0x40	; 64
 128:	8b bf       	out	0x3b, r24	; 59
 12a:	08 95       	ret

0000012c <uart_tx_init>:
 12c:	82 e0       	ldi	r24, 0x02	; 2
 12e:	8f bd       	out	0x2f, r24	; 47
 130:	81 e0       	ldi	r24, 0x01	; 1
 132:	83 bf       	out	0x33, r24	; 51
 134:	3e 9a       	sbi	0x07, 6	; 7
 136:	b8 9a       	sbi	0x17, 0	; 23
 138:	8b e4       	ldi	r24, 0x4B	; 75
 13a:	86 bf       	out	0x36, r24	; 54
 13c:	08 95       	ret

0000013e <spi_transmit_receive>:
 13e:	98 e0       	ldi	r25, 0x08	; 8
 140:	87 ff       	sbrs	r24, 7
 142:	02 c0       	rjmp	.+4      	; 0x148 <spi_transmit_receive+0xa>
 144:	c2 9a       	sbi	0x18, 2	; 24
 146:	01 c0       	rjmp	.+2      	; 0x14a <spi_transmit_receive+0xc>
 148:	c2 98       	cbi	0x18, 2	; 24
 14a:	c1 98       	cbi	0x18, 1	; 24
 14c:	c1 9a       	sbi	0x18, 1	; 24
 14e:	88 0f       	add	r24, r24
 150:	b4 99       	sbic	0x16, 4	; 22
 152:	81 60       	ori	r24, 0x01	; 1
 154:	91 50       	subi	r25, 0x01	; 1
 156:	a1 f7       	brne	.-24     	; 0x140 <spi_transmit_receive+0x2>
 158:	08 95       	ret

0000015a <main>:
 15a:	80 e0       	ldi	r24, 0x00	; 0
 15c:	90 e0       	ldi	r25, 0x00	; 0
 15e:	20 e8       	ldi	r18, 0x80	; 128
 160:	0f b6       	in	r0, 0x3f	; 63
 162:	f8 94       	cli
 164:	26 bd       	out	0x26, r18	; 38
 166:	86 bd       	out	0x26, r24	; 38
 168:	0f be       	out	0x3f, r0	; 63
 16a:	bb 9a       	sbi	0x17, 3	; 23
 16c:	c3 9a       	sbi	0x18, 3	; 24
 16e:	b8 9a       	sbi	0x17, 0	; 23
 170:	c0 9a       	sbi	0x18, 0	; 24
 172:	b9 98       	cbi	0x17, 1	; 23
 174:	c1 9a       	sbi	0x18, 1	; 24
 176:	da df       	rcall	.-76     	; 0x12c <uart_tx_init>
 178:	d1 df       	rcall	.-94     	; 0x11c <uart_rx_int_init>
 17a:	78 94       	sei
 17c:	80 91 61 00 	lds	r24, 0x0061
 180:	88 23       	and	r24, r24
 182:	b1 f0       	breq	.+44     	; 0x1b0 <main+0x56>
 184:	2f ef       	ldi	r18, 0xFF	; 255
 186:	8d ee       	ldi	r24, 0xED	; 237
 188:	92 e0       	ldi	r25, 0x02	; 2
 18a:	21 50       	subi	r18, 0x01	; 1
 18c:	80 40       	sbci	r24, 0x00	; 0
 18e:	90 40       	sbci	r25, 0x00	; 0
 190:	e1 f7       	brne	.-8      	; 0x18a <main+0x30>
 192:	00 c0       	rjmp	.+0      	; 0x194 <main+0x3a>
 194:	00 00       	nop
 196:	81 e4       	ldi	r24, 0x41	; 65
 198:	5c df       	rcall	.-328    	; 0x52 <uart_send_byte>
 19a:	10 92 61 00 	sts	0x0061, r1
 19e:	2f ef       	ldi	r18, 0xFF	; 255
 1a0:	8d ee       	ldi	r24, 0xED	; 237
 1a2:	92 e0       	ldi	r25, 0x02	; 2
 1a4:	21 50       	subi	r18, 0x01	; 1
 1a6:	80 40       	sbci	r24, 0x00	; 0
 1a8:	90 40       	sbci	r25, 0x00	; 0
 1aa:	e1 f7       	brne	.-8      	; 0x1a4 <main+0x4a>
 1ac:	00 c0       	rjmp	.+0      	; 0x1ae <main+0x54>
 1ae:	00 00       	nop
 1b0:	2f ef       	ldi	r18, 0xFF	; 255
 1b2:	8d ee       	ldi	r24, 0xED	; 237
 1b4:	92 e0       	ldi	r25, 0x02	; 2
 1b6:	21 50       	subi	r18, 0x01	; 1
 1b8:	80 40       	sbci	r24, 0x00	; 0
 1ba:	90 40       	sbci	r25, 0x00	; 0
 1bc:	e1 f7       	brne	.-8      	; 0x1b6 <main+0x5c>
 1be:	00 c0       	rjmp	.+0      	; 0x1c0 <main+0x66>
 1c0:	00 00       	nop
 1c2:	82 e4       	ldi	r24, 0x42	; 66
 1c4:	46 df       	rcall	.-372    	; 0x52 <uart_send_byte>
 1c6:	da cf       	rjmp	.-76     	; 0x17c <main+0x22>

000001c8 <_exit>:
 1c8:	f8 94       	cli

000001ca <__stop_program>:
 1ca:	ff cf       	rjmp	.-2      	; 0x1ca <__stop_program>
